target datalayout = "e-m:e-p270:32:32-p271:32:32-p272:64:64-i64:64-i128:128-f80:128-n8:16:32:64-S128"
target triple = "x86_64-pc-linux-gnu"

%struct.ssl_ctx_st = type { ptr, %union.crypto_mutex_st, i16, i16, ptr, ptr, ptr, ptr, ptr, ptr, i64, ptr, ptr, i32, i32, i64, ptr, ptr, ptr, i32, ptr, ptr, ptr, ptr, ptr, ptr, %struct.crypto_ex_data_st, ptr, ptr, ptr, ptr, i32, i32, i32, ptr, ptr, ptr, i32, i32, [32 x i8], ptr, ptr, ptr, ptr, i16, ptr, ptr, [16 x i8], [16 x i8], [16 x i8], ptr, ptr, ptr, ptr, i8, ptr, ptr, ptr, ptr, ptr, ptr, ptr, i32, ptr, i64, ptr, ptr, ptr, i64, ptr, i64, ptr, ptr, i8, ptr, i32 }
%union.crypto_mutex_st = type { double, [48 x i8] }
%struct.crypto_ex_data_st = type { ptr }
%struct.ssl_st = type { i32, i16, i16, ptr, ptr, ptr, ptr, ptr, i32, i32, ptr, ptr, i32, i32, ptr, ptr, ptr, ptr, ptr, ptr, ptr, ptr, i32, i32, [32 x i8], ptr, ptr, ptr, ptr, ptr, ptr, ptr, i64, %struct.crypto_ex_data_st, ptr, i32, i32, i32, i32, i16, ptr, i32, i64, ptr, ptr, ptr, ptr, ptr, ptr, i32, i32, ptr, ptr, i8, i8, i32 }

; Function Attrs: nounwind uwtable
define hidden ptr @ssl_get_ciphers_by_id(ptr noundef %0) #0 {
  %2 = alloca ptr, align 8
  %3 = alloca ptr, align 8
  store ptr %0, ptr %3, align 8, !tbaa !80
  %4 = load ptr, ptr %3, align 8, !tbaa !80
  %5 = icmp eq ptr %4, null
  br i1 %5, label %6, label %7

6:                                                ; preds = %1
  store ptr null, ptr %2, align 8
  br label %30

7:                                                ; preds = %1
  %8 = load ptr, ptr %3, align 8, !tbaa !80
  %9 = getelementptr inbounds nuw %struct.ssl_st, ptr %8, i32 0, i32 20
  %10 = load ptr, ptr %9, align 8, !tbaa !132
  %11 = icmp ne ptr %10, null
  br i1 %11, label %12, label %16

12:                                               ; preds = %7
  %13 = load ptr, ptr %3, align 8, !tbaa !80
  %14 = getelementptr inbounds nuw %struct.ssl_st, ptr %13, i32 0, i32 20
  %15 = load ptr, ptr %14, align 8, !tbaa !132
  store ptr %15, ptr %2, align 8
  br label %30

16:                                               ; preds = %7
  %17 = load ptr, ptr %3, align 8, !tbaa !80
  %18 = getelementptr inbounds nuw %struct.ssl_st, ptr %17, i32 0, i32 31
  %19 = load ptr, ptr %18, align 8, !tbaa !108
  %20 = getelementptr inbounds nuw %struct.ssl_ctx_st, ptr %19, i32 0, i32 5
  %21 = load ptr, ptr %20, align 8, !tbaa !66
  %22 = icmp ne ptr %21, null
  br i1 %22, label %23, label %29

23:                                               ; preds = %16
  %24 = load ptr, ptr %3, align 8, !tbaa !80
  %25 = getelementptr inbounds nuw %struct.ssl_st, ptr %24, i32 0, i32 31
  %26 = load ptr, ptr %25, align 8, !tbaa !108
  %27 = getelementptr inbounds nuw %struct.ssl_ctx_st, ptr %26, i32 0, i32 5
  %28 = load ptr, ptr %27, align 8, !tbaa !66
  store ptr %28, ptr %2, align 8
  br label %30

29:                                               ; preds = %16
  store ptr null, ptr %2, align 8
  br label %30

30:                                               ; preds = %29, %23, %12, %6
  %31 = load ptr, ptr %2, align 8
  ret ptr %31
}