; Function Attrs: mustprogress nofree norecurse nosync nounwind willreturn memory(read, inaccessiblemem: none) uwtable
define hidden ptr @ssl_get_ciphers_by_id(ptr noundef readonly captures(address_is_null) %0) local_unnamed_addr #10 {
  %2 = icmp eq ptr %0, null
  br i1 %2, label %11, label %3

3:                                                ; preds = %1
  %4 = getelementptr inbounds nuw i8, ptr %0, i64 128
  %5 = load ptr, ptr %4, align 8, !tbaa !121
  %.not = icmp eq ptr %5, null
  br i1 %.not, label %6, label %11

6:                                                ; preds = %3
  %7 = getelementptr inbounds nuw i8, ptr %0, i64 232
  %8 = load ptr, ptr %7, align 8, !tbaa !97
  %9 = getelementptr inbounds nuw i8, ptr %8, i64 80
  %10 = load ptr, ptr %9, align 8, !tbaa !58
  br label %11

11:                                               ; preds = %6, %3, %1
  %.0 = phi ptr [ null, %1 ], [ %5, %3 ], [ %10, %6 ]
  ret ptr %.0
}